; Function Attrs: nounwind uwtable
define dso_local i64 @to_json(ptr noundef readonly captures(none) %0) local_unnamed_addr #0 {
  %2 = alloca i32, align 4
  %3 = alloca i32, align 4
  %4 = getelementptr inbounds nuw i8, ptr %0, i64 32
  %5 = load i64, ptr %4, align 8
  %6 = load ptr, ptr %0, align 8
  %7 = tail call i32 @get_fn_expr_argtype(ptr noundef %6, i32 noundef 0) #10
  call void @llvm.lifetime.start.p0(i64 4, ptr nonnull %2) #10
  call void @llvm.lifetime.start.p0(i64 4, ptr nonnull %3) #10
  %8 = icmp eq i32 %7, 0
  br i1 %8, label %9, label %13

9:                                                ; preds = %1
  %10 = tail call zeroext i1 @errstart_cold(i32 noundef 21, ptr noundef null) #11
  tail call void @llvm.assume(i1 %10)
  %11 = tail call i32 @errcode(i32 noundef 50856066) #10
  %12 = tail call i32 (ptr, ...) @errmsg(ptr noundef nonnull @.str.3) #10
  tail call void @errfinish(ptr noundef nonnull @.str.1, i32 noundef 749, ptr noundef nonnull @__func__.to_json) #10
  unreachable

13:                                               ; preds = %1
  call void @json_categorize_type(i32 noundef %7, i1 noundef zeroext false, ptr noundef nonnull %2, ptr noundef nonnull %3) #10
  %14 = load i32, ptr %2, align 4
  %15 = load i32, ptr %3, align 4
  %16 = call ptr @makeStringInfo() #10
  call fastcc void @datum_to_json_internal(i64 noundef %5, i1 noundef zeroext false, ptr noundef %16, i32 noundef %14, i32 noundef %15, i1 noundef zeroext false)
  %17 = load ptr, ptr %16, align 8
  %18 = getelementptr inbounds nuw i8, ptr %16, i64 8
  %19 = load i32, ptr %18, align 8
  %20 = call ptr @cstring_to_text_with_len(ptr noundef %17, i32 noundef %19) #10
  %21 = ptrtoint ptr %20 to i64
  call void @llvm.lifetime.end.p0(i64 4, ptr nonnull %3) #10
  call void @llvm.lifetime.end.p0(i64 4, ptr nonnull %2) #10
  ret i64 %21
}